(dp1
S'tot_arm_entries'
p2
(dp3
S'F1'
p4
I0
sS'F2'
p5
I0
sS'F3'
p6
I0
sS'F4'
p7
I0
sS'CL'
p8
I18
sS'M'
I0
sS'OB'
p9
I15
sS'CR'
p10
I12
sS'OT'
p11
I19
ssS'frac_in_arms'
p12
(dp13
S'frac_in_closedAndMiddle'
p14
cnumpy.core.multiarray
scalar
p15
(cnumpy
dtype
p16
(S'f8'
I0
I1
tRp17
(I3
S'<'
NNNI-1
I-1
I0
tbS'V-\xd3\x8a\xca=\xe7?'
tRp18
sS'frac_in_middle'
p19
g15
(g17
S'\xbck\xb4\xa4\xea\x0e\xbd?'
tRp20
sS'frac_in_openArms'
p21
g15
(g17
S'b\xader|\xd5\xcb?'
tRp22
sS'frac_in_closedArms'
p23
g15
(g17
S'\xdf\x9f<6\xed\x9b\xe3?'
tRp24
ssS'median_speed'
p25
(dp26
g4
g15
(g17
S'\xfd\x97L\xfel\xe4(@'
tRp27
sg5
g15
(g17
S'\x11\xb4R\x8d\x9d\xbe&@'
tRp28
sg6
g15
(g17
S'x\xdd\xde\xce\x8a9&@'
tRp29
sg7
g15
(g17
S'\x00\xf36\xb1C\xd8#@'
tRp30
sg8
g15
(g17
S'[\x02-=I\xa7+@'
tRp31
sS'M'
g15
(g17
S'h#\x9c\x9f\\\xdd+@'
tRp32
sg9
g15
(g17
S'#)\x93\xa1\xe5\xca4@'
tRp33
sg10
g15
(g17
S'\xed\xe8\x11\x8eP\x98=@'
tRp34
sg11
g15
(g17
S'\x1dg\xbc\xb9\xc4\xf1)@'
tRp35
ssS'total_distance'
p36
(dp37
g4
g15
(g17
S'Y\xb0\xdd\x98\xf4\x19D@'
tRp38
sg5
g15
(g17
S'\tl\r\x8f\xe5\xc6M@'
tRp39
sg6
g15
(g17
S'\xe8\xb6\x8dKX\x07l@'
tRp40
sg7
g15
(g17
S'!=A\xe5b\xe3v@'
tRp41
sg8
g15
(g17
S'\x84\xdb\xf6\x18\x01T\xb9@'
tRp42
sS'M'
g15
(g17
S'\xfc*~\x99\x1b\xba\x95@'
tRp43
sg9
g15
(g17
S'N\xb3\xb9\x870*\x97@'
tRp44
sg10
g15
(g17
S'\xfcYd\x03\xd5\xe3\xa8@'
tRp45
sg11
g15
(g17
S'\x00\xce\xe6h\x13x\x91@'
tRp46
ssS'frames_in_arms'
p47
(dp48
g10
I1473
sg11
I991
sS'M'
I1097
sg9
I1101
sg8
I4079
ssS'arm_entries'
p49
(lp50
(lp51
a(lp52
a(lp53
a(lp54
a(lp55
I608
aI1429
aI1595
aI1650
aI1682
aI2030
aI2635
aI2838
aI3952
aI4258
aI4862
aI4876
aI5477
aI5478
aI5965
aI6406
aI7024
aI7559
aa(lp56
a(lp57
I147
aI456
aI458
aI1883
aI1990
aI2809
aI3290
aI3511
aI4626
aI5018
aI5424
aI6090
aI7131
aI7152
aI7253
aa(lp58
I107
aI130
aI1537
aI2168
aI3116
aI3384
aI3627
aI4142
aI4680
aI5217
aI5826
aI6280
aa(lp59
I479
aI485
aI529
aI558
aI1282
aI1957
aI2151
aI2564
aI2721
aI3022
aI3780
aI4094
aI5800
aI6751
aI6893
aI6909
aI7433
aI7458
aI7470
aasS'total_smoothed_distance'
p60
(dp61
g4
g15
(g17
S'\xafd\x8f\x00\x135D@'
tRp62
sg5
g15
(g17
S'\xc7\x12\xa9a\x87\xa4M@'
tRp63
sg6
g15
(g17
S'M\xfcU\xa1l\xbfd@'
tRp64
sg7
g15
(g17
S'\xfa\xab\x9d\xaf\xe5@r@'
tRp65
sg8
g15
(g17
S'\x8f\x03\x93\x82cT\xb9@'
tRp66
sS'M'
g15
(g17
S'\x98\xec\xea\xc6\xb1\xb4\x95@'
tRp67
sg9
g15
(g17
S"'\xb9<\xbf\xc3&\x97@"
tRp68
sg10
g15
(g17
S'\x90\xcb\xbbA\xad\xe3\xa8@'
tRp69
sg11
g15
(g17
S'\xa7\x10\xcc\xbc\x93q\x91@'
tRp70
ssS'smoothed_median_speed'
p71
(dp72
g4
g15
(g17
S']\xa1@\x13>\xd00@'
tRp73
sg5
g15
(g17
S'/\x9a\x7fx\x08\x117@'
tRp74
sg6
g15
(g17
S'\xc9\xf6\xeai \xc4%@'
tRp75
sg7
g15
(g17
S'\xd5\x95\xae\x87\xd9\xb77@'
tRp76
sg8
g15
(g17
S'7\xd0w[[\xde;@'
tRp77
sS'M'
g15
(g17
S'\xd5\xd6\xcbE\xa0\xd7>@'
tRp78
sg9
g15
(g17
S'Yx\xed1\xe9\xa5=@'
tRp79
sg10
g15
(g17
S'\xa2\xd2\x06\xc0\xd4bE@'
tRp80
sg11
g15
(g17
S'\x0e\xbf\xef\xf2\x0e\x8c7@'
tRp81
ss.