(dp1
S'tot_arm_entries'
p2
(dp3
S'F1'
p4
I0
sS'F2'
p5
I0
sS'F3'
p6
I0
sS'F4'
p7
I0
sS'CL'
p8
I14
sS'M'
I0
sS'OB'
p9
I9
sS'CR'
p10
I14
sS'OT'
p11
I5
ssS'frac_in_arms'
p12
(dp13
S'frac_in_closedAndMiddle'
p14
cnumpy.core.multiarray
scalar
p15
(cnumpy
dtype
p16
(S'f8'
I0
I1
tRp17
(I3
S'<'
NNNI-1
I-1
I0
tbS'\xc8`v\xa7v\xbe\xea?'
tRp18
sS'frac_in_middle'
p19
g15
(g17
S'@\xad\xa4Dz5\xb3?'
tRp20
sS'frac_in_openArms'
p21
g15
(g17
S'\x1c$\x87k~C\xc0?'
tRp22
sS'frac_in_closedArms'
p23
g15
(g17
S' \xcb\xe1^\xc7W\xe8?'
tRp24
ssS'median_speed'
p25
(dp26
g4
g15
(g17
S'|#_\xa9\xfe\x82\x1d@'
tRp27
sg5
g15
(g17
S'&Y\xdd,\xc1\t(@'
tRp28
sg6
g15
(g17
S'\x00\x00\x00\x00\x00\x00\x00\x00'
tRp29
sg7
g15
(g17
S'[\xf3\xbe\x99\xf3\xaf\x12@'
tRp30
sg8
g15
(g17
S'9\n\x95\t\xfch0@'
tRp31
sS'M'
g15
(g17
S'\x00\x8bg\x16PJ*@'
tRp32
sg9
g15
(g17
S'\xe3\xec\xa268\xc0$@'
tRp33
sg10
g15
(g17
S'\xe1\xd1%\xb8@21@'
tRp34
sg11
g15
(g17
S'\xc0K\x0c\xf6\xa8=&@'
tRp35
ssS'total_distance'
p36
(dp37
g4
g15
(g17
S'\x13\n\x99\xdfZ\xfc4@'
tRp38
sg5
g15
(g17
S'\x03\x07=M\x016\xfb?'
tRp39
sg6
g15
(g17
S'\xdc;\xc6\x17\xdbS)@'
tRp40
sg7
g15
(g17
S'\xe0\x89\xd6\xb7Yib@'
tRp41
sg8
g15
(g17
S'\x97 a;Y\xa3\xb8@'
tRp42
sS'M'
g15
(g17
S'?o\xbd\xb6\xf8n\x88@'
tRp43
sg9
g15
(g17
S'\xe5\xa9\xe8Lw\x19\x80@'
tRp44
sg10
g15
(g17
S'\x94\xd2sR>\xcd\xb3@'
tRp45
sg11
g15
(g17
S'\x92\x84\xc6\xe2\xdb!\x87@'
tRp46
ssS'frames_in_arms'
p47
(dp48
g10
I3241
sg11
I659
sS'M'
I599
sg9
I538
sg8
I3788
ssS'arm_entries'
p49
(lp50
(lp51
a(lp52
a(lp53
a(lp54
a(lp55
I599
aI1263
aI1912
aI2666
aI4886
aI5257
aI5262
aI5263
aI5265
aI5269
aI5732
aI7552
aI8022
aI8638
aa(lp56
a(lp57
I187
aI469
aI1615
aI1897
aI6919
aI7310
aI7324
aI7335
aI7357
aa(lp58
I332
aI337
aI354
aI519
aI1713
aI1721
aI1862
aI3819
aI5495
aI5657
aI5908
aI6888
aI6981
aI8721
aa(lp59
I256
aI5308
aI7814
aI7979
aI7984
aasS'total_smoothed_distance'
p60
(dp61
g4
g15
(g17
S'\x08{L\xd99\x0b5@'
tRp62
sg5
g15
(g17
S'\x03\x07=M\x016\xfb?'
tRp63
sg6
g15
(g17
S'W\xa78\x06\xbc5)@'
tRp64
sg7
g15
(g17
S'n\xec^\xcbm\xffV@'
tRp65
sg8
g15
(g17
S'O\xb6\xaaf\xd8\xa2\xb8@'
tRp66
sS'M'
g15
(g17
S'\xda\x13\xf9\rEc\x88@'
tRp67
sg9
g15
(g17
S'\xecV\xb1Z\x11\x16\x80@'
tRp68
sg10
g15
(g17
S',\\\x15\x00\xc2\xcc\xb3@'
tRp69
sg11
g15
(g17
S'\x9dR\x0e-\x00\x12\x87@'
tRp70
ssS'smoothed_median_speed'
p71
(dp72
g4
g15
(g17
S'\x11\xdb"\x84\xe1u @'
tRp73
sg5
g15
(g17
S'&Y\xdd,\xc1\t(@'
tRp74
sg6
g15
(g17
S'\x00\x00\x00\x00\x00\x00\x00\x00'
tRp75
sg7
g15
(g17
S'1\x89\x1a\xfc_F\x13@'
tRp76
sg8
g15
(g17
S'\xc1;\x98\xb0\xf9\x92<@'
tRp77
sS'M'
g15
(g17
S'\x065Z\xbb\xcb\xb47@'
tRp78
sg9
g15
(g17
S'M\xae\x19f9\xcf2@'
tRp79
sg10
g15
(g17
S'\xc5\xd4\xadG\xfa];@'
tRp80
sg11
g15
(g17
S'\x99\xbb@\xbd\x90\xab4@'
tRp81
ss.