(dp1
S'tot_arm_entries'
p2
(dp3
S'F1'
p4
I0
sS'F2'
p5
I0
sS'F3'
p6
I0
sS'F4'
p7
I0
sS'CL'
p8
I18
sS'M'
I0
sS'OB'
p9
I14
sS'CR'
p10
I13
sS'OT'
p11
I15
ssS'frac_in_arms'
p12
(dp13
S'frac_in_closedAndMiddle'
p14
cnumpy.core.multiarray
scalar
p15
(cnumpy
dtype
p16
(S'f8'
I0
I1
tRp17
(I3
S'<'
NNNI-1
I-1
I0
tbS'\x19\xdf\\e\x9c\xb0\xe8?'
tRp18
sS'frac_in_middle'
p19
g15
(g17
S'U+=\x94U\x9c\xbc?'
tRp20
sS'frac_in_openArms'
p21
g15
(g17
S'\xab\xa6\x1d\x908\x06\xc8?'
tRp22
sS'frac_in_closedArms'
p23
g15
(g17
S'\xae9\xd5\xb2\x11\x1d\xe5?'
tRp24
ssS'median_speed'
p25
(dp26
g4
g15
(g17
S'wL\x03p\xdf\x91$@'
tRp27
sg5
g15
(g17
S'\xcd$[=\x81\x967@'
tRp28
sg6
g15
(g17
S'\xa2\xab\x99\xf1\\\xb9$@'
tRp29
sg7
g15
(g17
S'\x00\x00\x00\x00\x00\x00\xf8\xff'
tRp30
sg8
g15
(g17
S"\x9e)r\xf7P'$@"
tRp31
sS'M'
g15
(g17
S'oM7\xb8\x00\x004@'
tRp32
sg9
g15
(g17
S'Y\x07\x91\x81<U2@'
tRp33
sg10
g15
(g17
S'F\xb5\xef\xdd\x19:4@'
tRp34
sg11
g15
(g17
S'\x01\xa4\xa2\xef)v*@'
tRp35
ssS'total_distance'
p36
(dp37
g4
g15
(g17
S'@\x90[\xf8X\x00V@'
tRp38
sg5
g15
(g17
S'.QB\x14\xd2:+@'
tRp39
sg6
g15
(g17
S'\x93\xc8\x1e\xa5\xd2\xb8N@'
tRp40
sg7
g15
(g17
S'\x00\x00\x00\x00\x00\x00\x00\x00'
tRp41
sg8
g15
(g17
S'}b\xfdd~\xa5\xba@'
tRp42
sS'M'
g15
(g17
S'\x93\x9d\x9a\xa5\xef\x85\x93@'
tRp43
sg9
g15
(g17
S'\xce\xad\xaa4\x1dh\x8d@'
tRp44
sg10
g15
(g17
S'pc\x06\xcelx\xb3@'
tRp45
sg11
g15
(g17
S'\xb1\xa8\xa8\xd5\xee\x01\x8d@'
tRp46
ssS'frames_in_arms'
p47
(dp48
g10
I2713
sg11
I816
sS'M'
I852
sg9
I688
sg8
I3699
ssS'arm_entries'
p49
(lp50
(lp51
a(lp52
a(lp53
a(lp54
a(lp55
I158
aI159
aI473
aI899
aI1075
aI1196
aI1445
aI1600
aI1824
aI3034
aI3586
aI3769
aI4898
aI5347
aI5695
aI5696
aI6054
aI7645
aa(lp56
a(lp57
I318
aI994
aI1537
aI1547
aI2094
aI2113
aI2980
aI2999
aI3004
aI3009
aI5242
aI5612
aI7495
aI7515
aa(lp58
I687
aI882
aI1237
aI1991
aI2459
aI2799
aI2829
aI2931
aI2935
aI4171
aI5147
aI5476
aI6370
aa(lp59
I48
aI378
aI665
aI1396
aI1728
aI1905
aI2369
aI2382
aI3686
aI3716
aI4793
aI5428
aI5798
aI5804
aI5814
aasS'total_smoothed_distance'
p60
(dp61
g4
g15
(g17
S'\x83\x17\xa2\xb17\xe1U@'
tRp62
sg5
g15
(g17
S'\xa4\x86_?~\r*@'
tRp63
sg6
g15
(g17
S'2^7\xec\x955K@'
tRp64
sg7
g15
(g17
S'\x00\x00\x00\x00\x00\x00\x00\x00'
tRp65
sg8
g15
(g17
S'\n|-,\xa6\xa7\xba@'
tRp66
sS'M'
g15
(g17
S'a\xc0v\x0e\xa3\x85\x93@'
tRp67
sg9
g15
(g17
S'\x1e\xe0\xfaf\x82`\x8d@'
tRp68
sg10
g15
(g17
S'\x84\xaf+O\xe0z\xb3@'
tRp69
sg11
g15
(g17
S'4\x80Q\xbaC\xed\x8c@'
tRp70
ssS'smoothed_median_speed'
p71
(dp72
g4
g15
(g17
S'\xa4\x1cl\x05Z\x1b(@'
tRp73
sg5
g15
(g17
S'\x12\xedIi@ 4@'
tRp74
sg6
g15
(g17
S'\xe4o\xaf,\xdc!(@'
tRp75
sg7
g15
(g17
S'\x00\x00\x00\x00\x00\x00\xf8\xff'
tRp76
sg8
g15
(g17
S'P7/\x0e\xban8@'
tRp77
sS'M'
g15
(g17
S'\xfc\xde\xc4vDqA@'
tRp78
sg9
g15
(g17
S'F\xde\xc0\xf2f\xb9?@'
tRp79
sg10
g15
(g17
S'\xa8\xb9N\xc6\x1fq@@'
tRp80
sg11
g15
(g17
S'\x87;\xac,\x0cL:@'
tRp81
ss.