(dp1
S'tot_arm_entries'
p2
(dp3
S'F1'
p4
I0
sS'F2'
p5
I0
sS'F3'
p6
I0
sS'F4'
p7
I0
sS'CL'
p8
I9
sS'M'
I0
sS'OB'
p9
I13
sS'CR'
p10
I11
sS'OT'
p11
I9
ssS'frac_in_arms'
p12
(dp13
S'frac_in_closedAndMiddle'
p14
cnumpy.core.multiarray
scalar
p15
(cnumpy
dtype
p16
(S'f8'
I0
I1
tRp17
(I3
S'<'
NNNI-1
I-1
I0
tbS',\x10B7\xff+\xe6?'
tRp18
sS'frac_in_middle'
p19
g15
(g17
S'\x0e\x8b.\x9c\x9at\xb4?'
tRp20
sS'frac_in_openArms'
p21
g15
(g17
S'v]H\x95\xb6<\xd0?'
tRp22
sS'frac_in_closedArms'
p23
g15
(g17
S'\xca>\xbc\xe3k\x9d\xe3?'
tRp24
ssS'median_speed'
p25
(dp26
g4
g15
(g17
S'\x00\x00\x00\x00\x00\x00\xf8\xff'
tRp27
sg5
g15
(g17
S'\x93\xea\n\x1fu\xad\x13@'
tRp28
sg6
g15
(g17
S'jJ\x86\xf4ll(@'
tRp29
sg7
g15
(g17
S'h\x91\xed|?\x15.@'
tRp30
sg8
g15
(g17
S'\x02K\xa7\xad:\xad3@'
tRp31
sS'M'
g15
(g17
S'L+\xab\xcc\x89\x97.@'
tRp32
sg9
g15
(g17
S'),\tYz\x085@'
tRp33
sg10
g15
(g17
S"\xb524\x18\xc5O'@"
tRp34
sg11
g15
(g17
S'\x9c\xb5Hb/\xbe.@'
tRp35
ssS'total_distance'
p36
(dp37
g4
g15
(g17
S'\x00\x00\x00\x00\x00\x00\x00\x00'
tRp38
sg5
g15
(g17
S'\xfeu\x14\xd6\xa8\xdfe@'
tRp39
sg6
g15
(g17
S'x\xe2\xa0\xb3JT\t@'
tRp40
sg7
g15
(g17
S'?C+\xc2F\xfb\x1f@'
tRp41
sg8
g15
(g17
S'\xd4(\xf7\x8d`]\xaa@'
tRp42
sS'M'
g15
(g17
S'\x9c\x98\xcf\x96\xab\x14\x8e@'
tRp43
sg9
g15
(g17
S'\xd7\xb3\xaa\x1c\x933\x9b@'
tRp44
sg10
g15
(g17
S'\xac\xeb?\xab\x1a3\xb6@'
tRp45
sg11
g15
(g17
S'&"\xb2\x02x\xa7\x92@'
tRp46
ssS'frames_in_arms'
p47
(dp48
g10
I4429
sg11
I899
sS'M'
I526
sg9
I1344
sg8
I1727
ssS'arm_entries'
p49
(lp50
(lp51
a(lp52
a(lp53
a(lp54
a(lp55
I760
aI2769
aI3219
aI4027
aI4315
aI5071
aI6013
aI6438
aI6621
aa(lp56
a(lp57
I64
aI1248
aI2400
aI3124
aI3156
aI3937
aI3987
aI4749
aI5937
aI6112
aI6273
aI6327
aI8856
aa(lp58
I25
aI449
aI1055
aI1436
aI2463
aI3692
aI4450
aI5447
aI6303
aI6357
aI7000
aa(lp59
I371
aI707
aI1325
aI3436
aI3830
aI4266
aI4345
aI5355
aI6753
aasS'total_smoothed_distance'
p60
(dp61
g4
g15
(g17
S'\x00\x00\x00\x00\x00\x00\x00\x00'
tRp62
sg5
g15
(g17
S'\xc9\x8b\xa1.\x1a\xbai@'
tRp63
sg6
g15
(g17
S'x\xe2\xa0\xb3JT\t@'
tRp64
sg7
g15
(g17
S'?C+\xc2F\xfb\x1f@'
tRp65
sg8
g15
(g17
S'ARE\xd7\xe3b\xaa@'
tRp66
sS'M'
g15
(g17
S';\xd8\xa2\xda\x15\x14\x8e@'
tRp67
sg9
g15
(g17
S'O\xe6\x17O\xdf5\x9b@'
tRp68
sg10
g15
(g17
S'k\x86~.\x9c2\xb6@'
tRp69
sg11
g15
(g17
S'\x0cl i\x94\xa1\x92@'
tRp70
ssS'smoothed_median_speed'
p71
(dp72
g4
g15
(g17
S'\x00\x00\x00\x00\x00\x00\xf8\xff'
tRp73
sg5
g15
(g17
S'\x034\x8bQR\x93\x16@'
tRp74
sg6
g15
(g17
S'jJ\x86\xf4ll(@'
tRp75
sg7
g15
(g17
S'h\x91\xed|?\x15.@'
tRp76
sg8
g15
(g17
S'?\xf6\xddr\x11\xbe@@'
tRp77
sS'M'
g15
(g17
S'\xf8\xa0]R%dB@'
tRp78
sg9
g15
(g17
S'\xa1\xb7\xbce\xc9\xaa;@'
tRp79
sg10
g15
(g17
S";3\t\xce'\xd14@"
tRp80
sg11
g15
(g17
S'\x86?\xcbK%(7@'
tRp81
ss.